Certificate:
    Data:
        Version: 1 (0x0)
        Serial Number: 4096 (0x1000)
    Signature Algorithm: ecdsa-with-SHA256
        Issuer: CN=sros2testCA
        Validity
            Not Before: Aug  6 22:31:05 2017 GMT
            Not After : Aug  4 22:31:05 2027 GMT
        Subject: CN=testcpp_listener
        Subject Public Key Info:
            Public Key Algorithm: id-ecPublicKey
                Public-Key: (256 bit)
                pub: 
                    04:ca:ea:25:0f:2b:d3:c4:00:d2:78:82:f0:fb:0f:
                    f4:bb:2e:f6:fb:93:e4:21:07:b3:ed:2e:87:6e:07:
                    fd:33:3e:32:74:49:1e:c2:f7:a3:bb:21:03:ef:29:
                    7f:12:04:fe:4f:47:cb:ba:71:9c:df:6f:d5:5d:43:
                    0b:12:57:84:00
                ASN1 OID: prime256v1
                NIST CURVE: P-256
    Signature Algorithm: ecdsa-with-SHA256
         30:44:02:20:2e:df:b1:62:e0:53:da:df:50:0b:47:bb:21:27:
         10:12:1a:4b:46:d1:e2:29:b0:2a:86:9d:62:84:87:53:b5:9c:
         02:20:42:99:e0:c4:c3:d5:e9:18:75:85:e2:12:7b:6f:87:a8:
         96:45:7c:ae:80:80:04:eb:8d:07:f1:33:e8:26:de:d5
-----BEGIN CERTIFICATE-----
MIIBGDCBwAICEAAwCgYIKoZIzj0EAwIwFjEUMBIGA1UEAwwLc3JvczJ0ZXN0Q0Ew
HhcNMTcwODA2MjIzMTA1WhcNMjcwODA0MjIzMTA1WjAbMRkwFwYDVQQDDBB0ZXN0
Y3BwX2xpc3RlbmVyMFkwEwYHKoZIzj0CAQYIKoZIzj0DAQcDQgAEyuolDyvTxADS
eILw+w/0uy72+5PkIQez7S6Hbgf9Mz4ydEkewvejuyED7yl/EgT+T0fLunGc32/V
XUMLEleEADAKBggqhkjOPQQDAgNHADBEAiAu37Fi4FPa31ALR7shJxASGktG0eIp
sCqGnWKEh1O1nAIgQpngxMPV6Rh1heISe2+HqJZFfK6AgATrjQfxM+gm3tU=
-----END CERTIFICATE-----
