Certificate:
    Data:
        Version: 1 (0x0)
        Serial Number: 4097 (0x1001)
    Signature Algorithm: ecdsa-with-SHA256
        Issuer: CN=sros2testCA
        Validity
            Not Before: Aug  6 22:39:34 2017 GMT
            Not After : Aug  4 22:39:34 2027 GMT
        Subject: CN=testcpp_talker
        Subject Public Key Info:
            Public Key Algorithm: id-ecPublicKey
                Public-Key: (256 bit)
                pub: 
                    04:c3:94:be:34:7f:b2:1b:c2:bd:70:1d:98:f7:8e:
                    82:cb:5c:1b:17:50:1c:51:02:3f:78:e7:6d:19:53:
                    61:bf:9d:e7:ca:9b:f3:21:b4:8d:3d:ce:fb:53:0b:
                    06:2c:c2:6a:c0:81:db:a1:6a:96:18:01:c6:5b:3e:
                    c1:02:90:d7:9d
                ASN1 OID: prime256v1
                NIST CURVE: P-256
    Signature Algorithm: ecdsa-with-SHA256
         30:45:02:20:63:b3:43:b6:1d:58:06:76:83:52:86:a9:0f:5f:
         a3:c2:3e:04:42:ef:b8:ea:02:63:70:1c:5f:15:41:9c:88:23:
         02:21:00:b5:6a:9d:9a:a4:39:58:62:22:7c:26:70:18:e9:20:
         5f:d7:e0:a7:71:f5:e2:c4:44:5d:dd:13:52:67:c4:84:ce
-----BEGIN CERTIFICATE-----
MIIBFzCBvgICEAEwCgYIKoZIzj0EAwIwFjEUMBIGA1UEAwwLc3JvczJ0ZXN0Q0Ew
HhcNMTcwODA2MjIzOTM0WhcNMjcwODA0MjIzOTM0WjAZMRcwFQYDVQQDDA50ZXN0
Y3BwX3RhbGtlcjBZMBMGByqGSM49AgEGCCqGSM49AwEHA0IABMOUvjR/shvCvXAd
mPeOgstcGxdQHFECP3jnbRlTYb+d58qb8yG0jT3O+1MLBizCasCB26FqlhgBxls+
wQKQ150wCgYIKoZIzj0EAwIDSAAwRQIgY7NDth1YBnaDUoapD1+jwj4EQu+46gJj
cBxfFUGciCMCIQC1ap2apDlYYiJ8JnAY6SBf1+CncfXixERd3RNSZ8SEzg==
-----END CERTIFICATE-----
